; Function Attrs: mustprogress nounwind willreturn uwtable
define void @Sbd_StoRefObj(ptr noundef readonly captures(none) %0, i32 noundef %1, i32 noundef %2) local_unnamed_addr #6 {
  %4 = getelementptr inbounds nuw i8, ptr %0, i64 24
  %5 = load ptr, ptr %4, align 8, !tbaa !3
  %6 = getelementptr i8, ptr %5, i64 32
  %.val = load ptr, ptr %6, align 8, !tbaa !14
  %7 = sext i32 %1 to i64
  %8 = getelementptr inbounds %struct.Gia_Obj_t_, ptr %.val, i64 %7
  %9 = getelementptr inbounds nuw i8, ptr %0, i64 56
  %10 = load ptr, ptr %9, align 8, !tbaa !88
  %11 = getelementptr inbounds nuw i8, ptr %10, i64 4
  %12 = load i32, ptr %11, align 4, !tbaa !110
  %13 = load i32, ptr %10, align 8, !tbaa !111
  %14 = icmp eq i32 %12, %13
  br i1 %14, label %15, label %.Vec_IntGrow.exit10_crit_edge.i

.Vec_IntGrow.exit10_crit_edge.i:                  ; preds = %3
  %.phi.trans.insert.i = getelementptr inbounds nuw i8, ptr %10, i64 8
  %.pre.i = load ptr, ptr %.phi.trans.insert.i, align 8, !tbaa !34
  br label %Vec_IntPush.exit

15:                                               ; preds = %3
  %16 = icmp slt i32 %12, 16
  br i1 %16, label %17, label %25

17:                                               ; preds = %15
  %18 = getelementptr inbounds nuw i8, ptr %10, i64 8
  %19 = load ptr, ptr %18, align 8, !tbaa !34
  %.not9.i.i = icmp eq ptr %19, null
  br i1 %.not9.i.i, label %22, label %20

20:                                               ; preds = %17
  %21 = tail call dereferenceable_or_null(64) ptr @realloc(ptr noundef nonnull %19, i64 noundef 64) #24
  br label %Vec_IntGrow.exit.i

22:                                               ; preds = %17
  %23 = tail call noalias dereferenceable_or_null(64) ptr @malloc(i64 noundef 64) #25
  br label %Vec_IntGrow.exit.i

Vec_IntGrow.exit.i:                               ; preds = %22, %20
  %24 = phi ptr [ %21, %20 ], [ %23, %22 ]
  store ptr %24, ptr %18, align 8, !tbaa !34
  store i32 16, ptr %10, align 8, !tbaa !111
  br label %Vec_IntPush.exit

25:                                               ; preds = %15
  %26 = shl nuw nsw i32 %12, 1
  %27 = getelementptr inbounds nuw i8, ptr %10, i64 8
  %28 = load ptr, ptr %27, align 8, !tbaa !34
  %.not9.i9.i = icmp eq ptr %28, null
  %29 = zext nneg i32 %26 to i64
  %30 = shl nuw nsw i64 %29, 2
  br i1 %.not9.i9.i, label %33, label %31

31:                                               ; preds = %25
  %32 = tail call ptr @realloc(ptr noundef nonnull %28, i64 noundef %30) #24
  br label %35

33:                                               ; preds = %25
  %34 = tail call noalias ptr @malloc(i64 noundef %30) #25
  br label %35

35:                                               ; preds = %33, %31
  %36 = phi ptr [ %32, %31 ], [ %34, %33 ]
  store ptr %36, ptr %27, align 8, !tbaa !34
  store i32 %26, ptr %10, align 8, !tbaa !111
  br label %Vec_IntPush.exit

Vec_IntPush.exit:                                 ; preds = %.Vec_IntGrow.exit10_crit_edge.i, %Vec_IntGrow.exit.i, %35
  %37 = phi ptr [ %.pre.i, %.Vec_IntGrow.exit10_crit_edge.i ], [ %36, %35 ], [ %24, %Vec_IntGrow.exit.i ]
  %38 = load i32, ptr %11, align 4, !tbaa !110
  %39 = add nsw i32 %38, 1
  store i32 %39, ptr %11, align 4, !tbaa !110
  %40 = sext i32 %38 to i64
  %41 = getelementptr inbounds i32, ptr %37, i64 %40
  store i32 0, ptr %41, align 4, !tbaa !35
  %42 = icmp sgt i32 %2, 0
  br i1 %42, label %43, label %50

43:                                               ; preds = %Vec_IntPush.exit
  %44 = load ptr, ptr %9, align 8, !tbaa !88
  %45 = getelementptr i8, ptr %44, i64 8
  %.val46 = load ptr, ptr %45, align 8, !tbaa !34
  %46 = zext nneg i32 %2 to i64
  %47 = getelementptr inbounds nuw i32, ptr %.val46, i64 %46
  %48 = load i32, ptr %47, align 4, !tbaa !35
  %49 = getelementptr inbounds i32, ptr %.val46, i64 %7
  store i32 %48, ptr %49, align 4, !tbaa !35
  store i32 1, ptr %47, align 4, !tbaa !35
  br label %50

50:                                               ; preds = %43, %Vec_IntPush.exit
  %.val38 = load i64, ptr %8, align 4
  %51 = and i64 %.val38, 2147483648
  %.not.i = icmp eq i64 %51, 0
  %52 = and i64 %.val38, 536870911
  %53 = icmp ne i64 %52, 536870911
  %narrow.i = and i1 %.not.i, %53
  br i1 %narrow.i, label %54, label %86

54:                                               ; preds = %50
  %55 = getelementptr inbounds nuw i8, ptr %0, i64 32
  %56 = load ptr, ptr %55, align 8, !tbaa !33
  %57 = trunc i64 %.val38 to i32
  %58 = and i32 %57, 536870911
  %59 = sub nsw i32 %1, %58
  %60 = getelementptr i8, ptr %56, i64 8
  %.val45 = load ptr, ptr %60, align 8, !tbaa !34
  %61 = sext i32 %59 to i64
  %62 = getelementptr inbounds i32, ptr %.val45, i64 %61
  %63 = load i32, ptr %62, align 4, !tbaa !35
  %64 = lshr i64 %.val38, 32
  %65 = trunc nuw i64 %64 to i32
  %66 = and i32 %65, 536870911
  %67 = sub nsw i32 %1, %66
  %68 = sext i32 %67 to i64
  %69 = getelementptr inbounds i32, ptr %.val45, i64 %68
  %70 = load i32, ptr %69, align 4, !tbaa !35
  %71 = lshr i32 %63, 1
  %72 = icmp slt i32 %63, 0
  %spec.select = select i1 %72, i32 %59, i32 %71
  %73 = lshr i32 %70, 1
  %74 = icmp slt i32 %70, 0
  %75 = select i1 %74, i32 %67, i32 %73
  %76 = load ptr, ptr %9, align 8, !tbaa !88
  %77 = getelementptr i8, ptr %76, i64 8
  %.val51 = load ptr, ptr %77, align 8, !tbaa !34
  %78 = sext i32 %spec.select to i64
  %79 = getelementptr inbounds i32, ptr %.val51, i64 %78
  %80 = load i32, ptr %79, align 4, !tbaa !35
  %81 = add nsw i32 %80, 1
  store i32 %81, ptr %79, align 4, !tbaa !35
  %82 = sext i32 %75 to i64
  %83 = getelementptr inbounds i32, ptr %.val51, i64 %82
  %84 = load i32, ptr %83, align 4, !tbaa !35
  %85 = add nsw i32 %84, 1
  store i32 %85, ptr %83, align 4, !tbaa !35
  br label %97

86:                                               ; preds = %50
  %.not.i55 = icmp ne i64 %51, 0
  %narrow.i56 = and i1 %.not.i55, %53
  br i1 %narrow.i56, label %87, label %97

87:                                               ; preds = %86
  %88 = trunc i64 %.val38 to i32
  %89 = and i32 %88, 536870911
  %90 = sub nsw i32 %1, %89
  %91 = sext i32 %90 to i64
  %92 = load ptr, ptr %9, align 8, !tbaa !88
  %93 = getelementptr i8, ptr %92, i64 8
  %.val53 = load ptr, ptr %93, align 8, !tbaa !34
  %94 = getelementptr inbounds i32, ptr %.val53, i64 %91
  %95 = load i32, ptr %94, align 4, !tbaa !35
  %96 = add nsw i32 %95, 1
  store i32 %96, ptr %94, align 4, !tbaa !35
  br label %97

97:                                               ; preds = %86, %87, %54
  ret void
}